target datalayout = "e-m:e-p270:32:32-p271:32:32-p272:64:64-i64:64-i128:128-f80:128-n8:16:32:64-S128"
target triple = "x86_64-pc-linux-gnu"

@s_Truths6 = internal global [6 x i64] [i64 -6148914691236517206, i64 -3689348814741910324, i64 -1085102592571150096, i64 -71777214294589696, i64 -281470681808896, i64 -4294967296], align 16

; Function Attrs: inlinehint nounwind uwtable
define internal i64 @Abc_Tt6Flip(i64 noundef %0, i32 noundef %1) #2 {
  %3 = alloca i64, align 8
  %4 = alloca i32, align 4
  store i64 %0, ptr %3, align 8, !tbaa !10
  store i32 %1, ptr %4, align 4, !tbaa !8
  %5 = load i64, ptr %3, align 8, !tbaa !10
  %6 = load i32, ptr %4, align 4, !tbaa !8
  %7 = shl i32 1, %6
  %8 = zext i32 %7 to i64
  %9 = shl i64 %5, %8
  %10 = load i32, ptr %4, align 4, !tbaa !8
  %11 = sext i32 %10 to i64
  %12 = getelementptr inbounds [6 x i64], ptr @s_Truths6, i64 0, i64 %11
  %13 = load i64, ptr %12, align 8, !tbaa !10
  %14 = and i64 %9, %13
  %15 = load i64, ptr %3, align 8, !tbaa !10
  %16 = load i32, ptr %4, align 4, !tbaa !8
  %17 = sext i32 %16 to i64
  %18 = getelementptr inbounds [6 x i64], ptr @s_Truths6, i64 0, i64 %17
  %19 = load i64, ptr %18, align 8, !tbaa !10
  %20 = and i64 %15, %19
  %21 = load i32, ptr %4, align 4, !tbaa !8
  %22 = shl i32 1, %21
  %23 = zext i32 %22 to i64
  %24 = lshr i64 %20, %23
  %25 = or i64 %14, %24
  store i64 %25, ptr %3, align 8, !tbaa !10
  ret i64 %25
}

; Function Attrs: inlinehint nounwind uwtable
define internal i64 @Abc_Tt6SwapAdjacent(i64 noundef %0, i32 noundef %1) #2 {
  %3 = alloca i64, align 8
  %4 = alloca i32, align 4
  store i64 %0, ptr %3, align 8, !tbaa !10
  store i32 %1, ptr %4, align 4, !tbaa !8
  %5 = load i64, ptr %3, align 8, !tbaa !10
  %6 = load i32, ptr %4, align 4, !tbaa !8
  %7 = sext i32 %6 to i64
  %8 = getelementptr inbounds [5 x [3 x i64]], ptr @s_PMasks, i64 0, i64 %7
  %9 = getelementptr inbounds [3 x i64], ptr %8, i64 0, i64 0
  %10 = load i64, ptr %9, align 8, !tbaa !10
  %11 = and i64 %5, %10
  %12 = load i64, ptr %3, align 8, !tbaa !10
  %13 = load i32, ptr %4, align 4, !tbaa !8
  %14 = sext i32 %13 to i64
  %15 = getelementptr inbounds [5 x [3 x i64]], ptr @s_PMasks, i64 0, i64 %14
  %16 = getelementptr inbounds [3 x i64], ptr %15, i64 0, i64 1
  %17 = load i64, ptr %16, align 8, !tbaa !10
  %18 = and i64 %12, %17
  %19 = load i32, ptr %4, align 4, !tbaa !8
  %20 = shl i32 1, %19
  %21 = zext i32 %20 to i64
  %22 = shl i64 %18, %21
  %23 = or i64 %11, %22
  %24 = load i64, ptr %3, align 8, !tbaa !10
  %25 = load i32, ptr %4, align 4, !tbaa !8
  %26 = sext i32 %25 to i64
  %27 = getelementptr inbounds [5 x [3 x i64]], ptr @s_PMasks, i64 0, i64 %26
  %28 = getelementptr inbounds [3 x i64], ptr %27, i64 0, i64 2
  %29 = load i64, ptr %28, align 8, !tbaa !10
  %30 = and i64 %24, %29
  %31 = load i32, ptr %4, align 4, !tbaa !8
  %32 = shl i32 1, %31
  %33 = zext i32 %32 to i64
  %34 = lshr i64 %30, %33
  %35 = or i64 %23, %34
  ret i64 %35
}

; Function Attrs: nounwind uwtable
define i32 @Abc_Tt6CofactorPermNaive(ptr noundef %0, i32 noundef %1, i32 noundef %2) #0 {
  %4 = alloca i32, align 4
  %5 = alloca ptr, align 8
  %6 = alloca i32, align 4
  %7 = alloca i32, align 4
  %8 = alloca i64, align 8
  %9 = alloca i32, align 4
  %10 = alloca i64, align 8
  %11 = alloca i64, align 8
  %12 = alloca i32, align 4
  store ptr %0, ptr %5, align 8, !tbaa !3
  store i32 %1, ptr %6, align 4, !tbaa !8
  store i32 %2, ptr %7, align 4, !tbaa !8
  %13 = load i32, ptr %7, align 4, !tbaa !8
  %14 = icmp ne i32 %13, 0
  br i1 %14, label %15, label %32

15:                                               ; preds = %3
  call void @llvm.lifetime.start.p0(i64 8, ptr %8) #12
  %16 = load ptr, ptr %5, align 8, !tbaa !3
  %17 = getelementptr inbounds i64, ptr %16, i64 0
  %18 = load i64, ptr %17, align 8, !tbaa !10
  %19 = load i32, ptr %6, align 4, !tbaa !8
  %20 = call i64 @Abc_Tt6SwapAdjacent(i64 noundef %18, i32 noundef %19)
  store i64 %20, ptr %8, align 8, !tbaa !10
  %21 = load ptr, ptr %5, align 8, !tbaa !3
  %22 = getelementptr inbounds i64, ptr %21, i64 0
  %23 = load i64, ptr %22, align 8, !tbaa !10
  %24 = load i64, ptr %8, align 8, !tbaa !10
  %25 = icmp ugt i64 %23, %24
  br i1 %25, label %26, label %30

26:                                               ; preds = %15
  %27 = load i64, ptr %8, align 8, !tbaa !10
  %28 = load ptr, ptr %5, align 8, !tbaa !3
  %29 = getelementptr inbounds i64, ptr %28, i64 0
  store i64 %27, ptr %29, align 8, !tbaa !10
  store i32 4, ptr %4, align 4
  store i32 1, ptr %9, align 4
  br label %31

30:                                               ; preds = %15
  store i32 0, ptr %4, align 4
  store i32 1, ptr %9, align 4
  br label %31

31:                                               ; preds = %30, %26
  call void @llvm.lifetime.end.p0(i64 8, ptr %8) #12
  br label %112

32:                                               ; preds = %3
  call void @llvm.lifetime.start.p0(i64 8, ptr %10) #12
  %33 = load ptr, ptr %5, align 8, !tbaa !3
  %34 = getelementptr inbounds i64, ptr %33, i64 0
  %35 = load i64, ptr %34, align 8, !tbaa !10
  store i64 %35, ptr %10, align 8, !tbaa !10
  call void @llvm.lifetime.start.p0(i64 8, ptr %11) #12
  %36 = load ptr, ptr %5, align 8, !tbaa !3
  %37 = getelementptr inbounds i64, ptr %36, i64 0
  %38 = load i64, ptr %37, align 8, !tbaa !10
  store i64 %38, ptr %11, align 8, !tbaa !10
  call void @llvm.lifetime.start.p0(i64 4, ptr %12) #12
  store i32 0, ptr %12, align 4, !tbaa !8
  %39 = load i64, ptr %10, align 8, !tbaa !10
  %40 = load i32, ptr %6, align 4, !tbaa !8
  %41 = call i64 @Abc_Tt6Flip(i64 noundef %39, i32 noundef %40)
  store i64 %41, ptr %10, align 8, !tbaa !10
  %42 = load i64, ptr %11, align 8, !tbaa !10
  %43 = load i64, ptr %10, align 8, !tbaa !10
  %44 = icmp ugt i64 %42, %43
  br i1 %44, label %45, label %47

45:                                               ; preds = %32
  %46 = load i64, ptr %10, align 8, !tbaa !10
  store i64 %46, ptr %11, align 8, !tbaa !10
  store i32 1, ptr %12, align 4, !tbaa !8
  br label %47

47:                                               ; preds = %45, %32
  %48 = load i64, ptr %10, align 8, !tbaa !10
  %49 = load i32, ptr %6, align 4, !tbaa !8
  %50 = add nsw i32 %49, 1
  %51 = call i64 @Abc_Tt6Flip(i64 noundef %48, i32 noundef %50)
  store i64 %51, ptr %10, align 8, !tbaa !10
  %52 = load i64, ptr %11, align 8, !tbaa !10
  %53 = load i64, ptr %10, align 8, !tbaa !10
  %54 = icmp ugt i64 %52, %53
  br i1 %54, label %55, label %57

55:                                               ; preds = %47
  %56 = load i64, ptr %10, align 8, !tbaa !10
  store i64 %56, ptr %11, align 8, !tbaa !10
  store i32 3, ptr %12, align 4, !tbaa !8
  br label %57

57:                                               ; preds = %55, %47
  %58 = load i64, ptr %10, align 8, !tbaa !10
  %59 = load i32, ptr %6, align 4, !tbaa !8
  %60 = call i64 @Abc_Tt6Flip(i64 noundef %58, i32 noundef %59)
  store i64 %60, ptr %10, align 8, !tbaa !10
  %61 = load i64, ptr %11, align 8, !tbaa !10
  %62 = load i64, ptr %10, align 8, !tbaa !10
  %63 = icmp ugt i64 %61, %62
  br i1 %63, label %64, label %66

64:                                               ; preds = %57
  %65 = load i64, ptr %10, align 8, !tbaa !10
  store i64 %65, ptr %11, align 8, !tbaa !10
  store i32 2, ptr %12, align 4, !tbaa !8
  br label %66

66:                                               ; preds = %64, %57
  %67 = load i64, ptr %10, align 8, !tbaa !10
  %68 = load i32, ptr %6, align 4, !tbaa !8
  %69 = call i64 @Abc_Tt6SwapAdjacent(i64 noundef %67, i32 noundef %68)
  store i64 %69, ptr %10, align 8, !tbaa !10
  %70 = load i64, ptr %11, align 8, !tbaa !10
  %71 = load i64, ptr %10, align 8, !tbaa !10
  %72 = icmp ugt i64 %70, %71
  br i1 %72, label %73, label %75

73:                                               ; preds = %66
  %74 = load i64, ptr %10, align 8, !tbaa !10
  store i64 %74, ptr %11, align 8, !tbaa !10
  store i32 6, ptr %12, align 4, !tbaa !8
  br label %75

75:                                               ; preds = %73, %66
  %76 = load i64, ptr %10, align 8, !tbaa !10
  %77 = load i32, ptr %6, align 4, !tbaa !8
  %78 = add nsw i32 %77, 1
  %79 = call i64 @Abc_Tt6Flip(i64 noundef %76, i32 noundef %78)
  store i64 %79, ptr %10, align 8, !tbaa !10
  %80 = load i64, ptr %11, align 8, !tbaa !10
  %81 = load i64, ptr %10, align 8, !tbaa !10
  %82 = icmp ugt i64 %80, %81
  br i1 %82, label %83, label %85

83:                                               ; preds = %75
  %84 = load i64, ptr %10, align 8, !tbaa !10
  store i64 %84, ptr %11, align 8, !tbaa !10
  store i32 7, ptr %12, align 4, !tbaa !8
  br label %85

85:                                               ; preds = %83, %75
  %86 = load i64, ptr %10, align 8, !tbaa !10
  %87 = load i32, ptr %6, align 4, !tbaa !8
  %88 = call i64 @Abc_Tt6Flip(i64 noundef %86, i32 noundef %87)
  store i64 %88, ptr %10, align 8, !tbaa !10
  %89 = load i64, ptr %11, align 8, !tbaa !10
  %90 = load i64, ptr %10, align 8, !tbaa !10
  %91 = icmp ugt i64 %89, %90
  br i1 %91, label %92, label %94

92:                                               ; preds = %85
  %93 = load i64, ptr %10, align 8, !tbaa !10
  store i64 %93, ptr %11, align 8, !tbaa !10
  store i32 5, ptr %12, align 4, !tbaa !8
  br label %94

94:                                               ; preds = %92, %85
  %95 = load i64, ptr %10, align 8, !tbaa !10
  %96 = load i32, ptr %6, align 4, !tbaa !8
  %97 = add nsw i32 %96, 1
  %98 = call i64 @Abc_Tt6Flip(i64 noundef %95, i32 noundef %97)
  store i64 %98, ptr %10, align 8, !tbaa !10
  %99 = load i64, ptr %11, align 8, !tbaa !10
  %100 = load i64, ptr %10, align 8, !tbaa !10
  %101 = icmp ugt i64 %99, %100
  br i1 %101, label %102, label %104

102:                                              ; preds = %94
  %103 = load i64, ptr %10, align 8, !tbaa !10
  store i64 %103, ptr %11, align 8, !tbaa !10
  store i32 4, ptr %12, align 4, !tbaa !8
  br label %104

104:                                              ; preds = %102, %94
  %105 = load i64, ptr %10, align 8, !tbaa !10
  %106 = load i32, ptr %6, align 4, !tbaa !8
  %107 = call i64 @Abc_Tt6SwapAdjacent(i64 noundef %105, i32 noundef %106)
  store i64 %107, ptr %10, align 8, !tbaa !10
  %108 = load i64, ptr %11, align 8, !tbaa !10
  %109 = load ptr, ptr %5, align 8, !tbaa !3
  %110 = getelementptr inbounds i64, ptr %109, i64 0
  store i64 %108, ptr %110, align 8, !tbaa !10
  %111 = load i32, ptr %12, align 4, !tbaa !8
  store i32 %111, ptr %4, align 4
  store i32 1, ptr %9, align 4
  call void @llvm.lifetime.end.p0(i64 4, ptr %12) #12
  call void @llvm.lifetime.end.p0(i64 8, ptr %11) #12
  call void @llvm.lifetime.end.p0(i64 8, ptr %10) #12
  br label %112

112:                                              ; preds = %104, %31
  %113 = load i32, ptr %4, align 4
  ret i32 %113
}