; Function Attrs: mustprogress nofree norecurse nosync nounwind willreturn memory(argmem: readwrite) uwtable
define range(i32 0, 8) i32 @Abc_Tt6CofactorPermNaive(ptr noundef captures(none) %0, i32 noundef %1, i32 noundef %2) local_unnamed_addr #6 {
  %.not = icmp eq i32 %2, 0
  %4 = load i64, ptr %0, align 8, !tbaa !3
  br i1 %.not, label %23, label %5

5:                                                ; preds = %3
  %6 = sext i32 %1 to i64
  %7 = getelementptr inbounds [5 x [3 x i64]], ptr @s_PMasks, i64 0, i64 %6
  %8 = load i64, ptr %7, align 8, !tbaa !3
  %9 = and i64 %8, %4
  %10 = getelementptr inbounds nuw i8, ptr %7, i64 8
  %11 = load i64, ptr %10, align 8, !tbaa !3
  %12 = and i64 %11, %4
  %13 = shl nuw i32 1, %1
  %14 = zext i32 %13 to i64
  %15 = shl i64 %12, %14
  %16 = or i64 %15, %9
  %17 = getelementptr inbounds nuw i8, ptr %7, i64 16
  %18 = load i64, ptr %17, align 8, !tbaa !3
  %19 = and i64 %18, %4
  %20 = lshr i64 %19, %14
  %21 = or i64 %16, %20
  %22 = icmp ugt i64 %4, %21
  br i1 %22, label %.sink.split, label %85

23:                                               ; preds = %3
  %24 = shl nuw i32 1, %1
  %25 = zext i32 %24 to i64
  %26 = shl i64 %4, %25
  %27 = sext i32 %1 to i64
  %28 = getelementptr inbounds [6 x i64], ptr @s_Truths6, i64 0, i64 %27
  %29 = load i64, ptr %28, align 8, !tbaa !3
  %30 = and i64 %29, %26
  %31 = and i64 %29, %4
  %32 = lshr i64 %31, %25
  %33 = or i64 %32, %30
  %34 = icmp ugt i64 %4, %33
  %spec.select = tail call i64 @llvm.umin.i64(i64 %4, i64 %33)
  %spec.select67 = zext i1 %34 to i32
  %35 = add nsw i32 %1, 1
  %36 = shl nuw i32 1, %35
  %37 = zext i32 %36 to i64
  %38 = shl i64 %33, %37
  %39 = sext i32 %35 to i64
  %40 = getelementptr inbounds [6 x i64], ptr @s_Truths6, i64 0, i64 %39
  %41 = load i64, ptr %40, align 8, !tbaa !3
  %42 = and i64 %38, %41
  %43 = and i64 %33, %41
  %44 = lshr i64 %43, %37
  %45 = or i64 %44, %42
  %46 = icmp ugt i64 %spec.select, %45
  %.150 = tail call i64 @llvm.umin.i64(i64 %spec.select, i64 %45)
  %.1 = select i1 %46, i32 3, i32 %spec.select67
  %47 = shl i64 %45, %25
  %48 = and i64 %47, %29
  %49 = and i64 %45, %29
  %50 = lshr i64 %49, %25
  %51 = or i64 %50, %48
  %52 = icmp ugt i64 %.150, %51
  %.251 = tail call i64 @llvm.umin.i64(i64 %.150, i64 %51)
  %.2 = select i1 %52, i32 2, i32 %.1
  %53 = getelementptr inbounds [5 x [3 x i64]], ptr @s_PMasks, i64 0, i64 %27
  %54 = load i64, ptr %53, align 8, !tbaa !3
  %55 = and i64 %51, %54
  %56 = getelementptr inbounds nuw i8, ptr %53, i64 8
  %57 = load i64, ptr %56, align 8, !tbaa !3
  %58 = and i64 %51, %57
  %59 = shl i64 %58, %25
  %60 = or i64 %59, %55
  %61 = getelementptr inbounds nuw i8, ptr %53, i64 16
  %62 = load i64, ptr %61, align 8, !tbaa !3
  %63 = and i64 %51, %62
  %64 = lshr i64 %63, %25
  %65 = or i64 %60, %64
  %66 = icmp ugt i64 %.251, %65
  %.352 = tail call i64 @llvm.umin.i64(i64 %.251, i64 %65)
  %.3 = select i1 %66, i32 6, i32 %.2
  %67 = shl i64 %65, %37
  %68 = and i64 %67, %41
  %69 = and i64 %65, %41
  %70 = lshr i64 %69, %37
  %71 = or i64 %70, %68
  %72 = icmp ugt i64 %.352, %71
  %.453 = tail call i64 @llvm.umin.i64(i64 %.352, i64 %71)
  %.4 = select i1 %72, i32 7, i32 %.3
  %73 = shl i64 %71, %25
  %74 = and i64 %73, %29
  %75 = and i64 %71, %29
  %76 = lshr i64 %75, %25
  %77 = or i64 %76, %74
  %78 = icmp ugt i64 %.453, %77
  %.554 = tail call i64 @llvm.umin.i64(i64 %.453, i64 %77)
  %.5 = select i1 %78, i32 5, i32 %.4
  %79 = shl i64 %77, %37
  %80 = and i64 %79, %41
  %81 = and i64 %77, %41
  %82 = lshr i64 %81, %37
  %83 = or i64 %82, %80
  %84 = icmp ugt i64 %.554, %83
  %.655 = tail call i64 @llvm.umin.i64(i64 %.554, i64 %83)
  %.6 = select i1 %84, i32 4, i32 %.5
  br label %.sink.split

.sink.split:                                      ; preds = %5, %23
  %.sink = phi i64 [ %.655, %23 ], [ %21, %5 ]
  %.157.ph = phi i32 [ %.6, %23 ], [ 4, %5 ]
  store i64 %.sink, ptr %0, align 8, !tbaa !3
  br label %85

85:                                               ; preds = %.sink.split, %5
  %.157 = phi i32 [ 0, %5 ], [ %.157.ph, %.sink.split ]
  ret i32 %.157
}